target datalayout = "e-m:e-p270:32:32-p271:32:32-p272:64:64-i64:64-i128:128-f80:128-n8:16:32:64-S128"
target triple = "x86_64-pc-linux-gnu"

%struct._lv_menu_t = type { %struct._lv_obj_t, ptr, ptr, ptr, ptr, ptr, ptr, ptr, ptr, ptr, ptr, ptr, ptr, %struct.lv_ll_t, i8, i8, i8 }
%struct._lv_obj_t = type { ptr, ptr, ptr, ptr, ptr, %struct.lv_area_t, i32, i16, i16 }
%struct.lv_area_t = type { i32, i32, i32, i32 }
%struct.lv_ll_t = type { i32, ptr, ptr }
%struct._lv_menu_page_t = type { %struct._lv_obj_t, ptr, i8 }

; Function Attrs: nounwind uwtable
define ptr @lv_menu_get_cur_sidebar_page(ptr noundef %0) #0 {
  %2 = alloca ptr, align 8
  %3 = alloca ptr, align 8
  store ptr %0, ptr %2, align 8, !tbaa !3
  br label %4

4:                                                ; preds = %1
  br label %5

5:                                                ; preds = %4
  call void @llvm.lifetime.start.p0(i64 8, ptr %3) #3
  %6 = load ptr, ptr %2, align 8, !tbaa !3
  store ptr %6, ptr %3, align 8, !tbaa !3
  %7 = load ptr, ptr %3, align 8, !tbaa !3
  %8 = getelementptr inbounds nuw %struct._lv_menu_t, ptr %7, i32 0, i32 8
  %9 = load ptr, ptr %8, align 8, !tbaa !20
  call void @llvm.lifetime.end.p0(i64 8, ptr %3) #3
  ret ptr %9
}

; Function Attrs: nounwind uwtable
define ptr @lv_menu_get_cur_main_page(ptr noundef %0) #0 {
  %2 = alloca ptr, align 8
  %3 = alloca ptr, align 8
  store ptr %0, ptr %2, align 8, !tbaa !3
  br label %4

4:                                                ; preds = %1
  br label %5

5:                                                ; preds = %4
  call void @llvm.lifetime.start.p0(i64 8, ptr %3) #3
  %6 = load ptr, ptr %2, align 8, !tbaa !3
  store ptr %6, ptr %3, align 8, !tbaa !3
  %7 = load ptr, ptr %3, align 8, !tbaa !3
  %8 = getelementptr inbounds nuw %struct._lv_menu_t, ptr %7, i32 0, i32 3
  %9 = load ptr, ptr %8, align 8, !tbaa !25
  call void @llvm.lifetime.end.p0(i64 8, ptr %3) #3
  ret ptr %9
}

; Function Attrs: nounwind uwtable
define internal void @lv_menu_value_changed_event_cb(ptr noundef %0) #0 {
  %2 = alloca ptr, align 8
  %3 = alloca ptr, align 8
  %4 = alloca ptr, align 8
  %5 = alloca ptr, align 8
  %6 = alloca ptr, align 8
  store ptr %0, ptr %2, align 8, !tbaa !3
  call void @llvm.lifetime.start.p0(i64 8, ptr %3) #3
  %7 = load ptr, ptr %2, align 8, !tbaa !3
  %8 = call ptr @lv_event_get_user_data(ptr noundef %7)
  store ptr %8, ptr %3, align 8, !tbaa !3
  call void @llvm.lifetime.start.p0(i64 8, ptr %4) #3
  %9 = load ptr, ptr %3, align 8, !tbaa !3
  store ptr %9, ptr %4, align 8, !tbaa !3
  call void @llvm.lifetime.start.p0(i64 8, ptr %5) #3
  %10 = load ptr, ptr %3, align 8, !tbaa !3
  %11 = call ptr @lv_menu_get_cur_main_page(ptr noundef %10)
  store ptr %11, ptr %5, align 8, !tbaa !3
  %12 = load ptr, ptr %5, align 8, !tbaa !3
  %13 = icmp ne ptr %12, null
  br i1 %13, label %14, label %39

14:                                               ; preds = %1
  %15 = load ptr, ptr %4, align 8, !tbaa !3
  %16 = getelementptr inbounds nuw %struct._lv_menu_t, ptr %15, i32 0, i32 6
  %17 = load ptr, ptr %16, align 8, !tbaa !24
  %18 = icmp ne ptr %17, null
  br i1 %18, label %19, label %39

19:                                               ; preds = %14
  %20 = load ptr, ptr %5, align 8, !tbaa !3
  %21 = getelementptr inbounds nuw %struct._lv_menu_page_t, ptr %20, i32 0, i32 1
  %22 = load ptr, ptr %21, align 8, !tbaa !32
  %23 = icmp ne ptr %22, null
  br i1 %23, label %24, label %34

24:                                               ; preds = %19
  %25 = load ptr, ptr %4, align 8, !tbaa !3
  %26 = getelementptr inbounds nuw %struct._lv_menu_t, ptr %25, i32 0, i32 6
  %27 = load ptr, ptr %26, align 8, !tbaa !24
  %28 = load ptr, ptr %5, align 8, !tbaa !3
  %29 = getelementptr inbounds nuw %struct._lv_menu_page_t, ptr %28, i32 0, i32 1
  %30 = load ptr, ptr %29, align 8, !tbaa !32
  call void @lv_label_set_text(ptr noundef %27, ptr noundef %30)
  %31 = load ptr, ptr %4, align 8, !tbaa !3
  %32 = getelementptr inbounds nuw %struct._lv_menu_t, ptr %31, i32 0, i32 6
  %33 = load ptr, ptr %32, align 8, !tbaa !24
  call void @lv_obj_remove_flag(ptr noundef %33, i32 noundef 1)
  br label %38

34:                                               ; preds = %19
  %35 = load ptr, ptr %4, align 8, !tbaa !3
  %36 = getelementptr inbounds nuw %struct._lv_menu_t, ptr %35, i32 0, i32 6
  %37 = load ptr, ptr %36, align 8, !tbaa !24
  call void @lv_obj_add_flag(ptr noundef %37, i32 noundef 1)
  br label %38

38:                                               ; preds = %34, %24
  br label %39

39:                                               ; preds = %38, %14, %1
  call void @llvm.lifetime.start.p0(i64 8, ptr %6) #3
  %40 = load ptr, ptr %3, align 8, !tbaa !3
  %41 = call ptr @lv_menu_get_cur_sidebar_page(ptr noundef %40)
  store ptr %41, ptr %6, align 8, !tbaa !3
  %42 = load ptr, ptr %6, align 8, !tbaa !3
  %43 = icmp ne ptr %42, null
  br i1 %43, label %44, label %69

44:                                               ; preds = %39
  %45 = load ptr, ptr %4, align 8, !tbaa !3
  %46 = getelementptr inbounds nuw %struct._lv_menu_t, ptr %45, i32 0, i32 11
  %47 = load ptr, ptr %46, align 8, !tbaa !19
  %48 = icmp ne ptr %47, null
  br i1 %48, label %49, label %69

49:                                               ; preds = %44
  %50 = load ptr, ptr %6, align 8, !tbaa !3
  %51 = getelementptr inbounds nuw %struct._lv_menu_page_t, ptr %50, i32 0, i32 1
  %52 = load ptr, ptr %51, align 8, !tbaa !32
  %53 = icmp ne ptr %52, null
  br i1 %53, label %54, label %64

54:                                               ; preds = %49
  %55 = load ptr, ptr %4, align 8, !tbaa !3
  %56 = getelementptr inbounds nuw %struct._lv_menu_t, ptr %55, i32 0, i32 11
  %57 = load ptr, ptr %56, align 8, !tbaa !19
  %58 = load ptr, ptr %6, align 8, !tbaa !3
  %59 = getelementptr inbounds nuw %struct._lv_menu_page_t, ptr %58, i32 0, i32 1
  %60 = load ptr, ptr %59, align 8, !tbaa !32
  call void @lv_label_set_text(ptr noundef %57, ptr noundef %60)
  %61 = load ptr, ptr %4, align 8, !tbaa !3
  %62 = getelementptr inbounds nuw %struct._lv_menu_t, ptr %61, i32 0, i32 11
  %63 = load ptr, ptr %62, align 8, !tbaa !19
  call void @lv_obj_remove_flag(ptr noundef %63, i32 noundef 1)
  br label %68

64:                                               ; preds = %49
  %65 = load ptr, ptr %4, align 8, !tbaa !3
  %66 = getelementptr inbounds nuw %struct._lv_menu_t, ptr %65, i32 0, i32 11
  %67 = load ptr, ptr %66, align 8, !tbaa !19
  call void @lv_obj_add_flag(ptr noundef %67, i32 noundef 1)
  br label %68

68:                                               ; preds = %64, %54
  br label %69

69:                                               ; preds = %68, %44, %39
  call void @llvm.lifetime.end.p0(i64 8, ptr %6) #3
  call void @llvm.lifetime.end.p0(i64 8, ptr %5) #3
  call void @llvm.lifetime.end.p0(i64 8, ptr %4) #3
  call void @llvm.lifetime.end.p0(i64 8, ptr %3) #3
  ret void
}