; Function Attrs: nounwind uwtable
define internal void @lv_menu_value_changed_event_cb(ptr noundef %0) #0 {
  %2 = tail call ptr @lv_event_get_user_data(ptr noundef %0) #4
  %3 = getelementptr inbounds nuw i8, ptr %2, i64 80
  %4 = load ptr, ptr %3, align 8, !tbaa !19
  %.not = icmp eq ptr %4, null
  br i1 %.not, label %14, label %5

5:                                                ; preds = %1
  %6 = getelementptr inbounds nuw i8, ptr %2, i64 104
  %7 = load ptr, ptr %6, align 8, !tbaa !18
  %.not23 = icmp eq ptr %7, null
  br i1 %.not23, label %14, label %8

8:                                                ; preds = %5
  %9 = getelementptr inbounds nuw i8, ptr %4, i64 64
  %10 = load ptr, ptr %9, align 8, !tbaa !26
  %.not24 = icmp eq ptr %10, null
  br i1 %.not24, label %13, label %11

11:                                               ; preds = %8
  tail call void @lv_label_set_text(ptr noundef nonnull %7, ptr noundef nonnull %10) #4
  %12 = load ptr, ptr %6, align 8, !tbaa !18
  tail call void @lv_obj_remove_flag(ptr noundef %12, i32 noundef 1) #4
  br label %14

13:                                               ; preds = %8
  tail call void @lv_obj_add_flag(ptr noundef nonnull %7, i32 noundef 1) #4
  br label %14

14:                                               ; preds = %11, %13, %5, %1
  %15 = getelementptr inbounds nuw i8, ptr %2, i64 120
  %16 = load ptr, ptr %15, align 8, !tbaa !29
  %.not25 = icmp eq ptr %16, null
  br i1 %.not25, label %26, label %17

17:                                               ; preds = %14
  %18 = getelementptr inbounds nuw i8, ptr %2, i64 144
  %19 = load ptr, ptr %18, align 8, !tbaa !33
  %.not26 = icmp eq ptr %19, null
  br i1 %.not26, label %26, label %20

20:                                               ; preds = %17
  %21 = getelementptr inbounds nuw i8, ptr %16, i64 64
  %22 = load ptr, ptr %21, align 8, !tbaa !26
  %.not27 = icmp eq ptr %22, null
  br i1 %.not27, label %25, label %23

23:                                               ; preds = %20
  tail call void @lv_label_set_text(ptr noundef nonnull %19, ptr noundef nonnull %22) #4
  %24 = load ptr, ptr %18, align 8, !tbaa !33
  tail call void @lv_obj_remove_flag(ptr noundef %24, i32 noundef 1) #4
  br label %26

25:                                               ; preds = %20
  tail call void @lv_obj_add_flag(ptr noundef nonnull %19, i32 noundef 1) #4
  br label %26

26:                                               ; preds = %23, %25, %17, %14
  ret void
}